
sw/test.elf:     file format elf64-littleriscv


Disassembly of section .text:

0000000000000000 <_start>:
   0:	ff010113          	addi	sp,sp,-16
   4:	00813423          	sd	s0,8(sp)
   8:	01010413          	addi	s0,sp,16
   c:	00500713          	li	a4,5
  10:	84e1ba23          	sd	a4,-1964(gp) # 1100 <x1>
  14:	00300713          	li	a4,3
  18:	80e1ba23          	sd	a4,-2028(gp) # 10c0 <x2>
  1c:	8541b783          	ld	a5,-1964(gp) # 1100 <x1>
  20:	8141b703          	ld	a4,-2028(gp) # 10c0 <x2>
  24:	04e78733          	0x4e78733
  28:	84e1b623          	sd	a4,-1972(gp) # 10f8 <x3>
  2c:	8541b783          	ld	a5,-1964(gp) # 1100 <x1>
  30:	8141b703          	ld	a4,-2028(gp) # 10c0 <x2>
  34:	08e78733          	0x8e78733
  38:	84e1b223          	sd	a4,-1980(gp) # 10f0 <x4>
  3c:	8541b783          	ld	a5,-1964(gp) # 1100 <x1>
  40:	8141b703          	ld	a4,-2028(gp) # 10c0 <x2>
  44:	0ce78733          	0xce78733
  48:	000017b7          	lui	a5,0x1
  4c:	0ae7bc23          	sd	a4,184(a5) # 10b8 <x5>
  50:	8541b783          	ld	a5,-1964(gp) # 1100 <x1>
  54:	8141b703          	ld	a4,-2028(gp) # 10c0 <x2>
  58:	00e78733          	add	a4,a5,a4
  5c:	000017b7          	lui	a5,0x1
  60:	0ae7b823          	sd	a4,176(a5) # 10b0 <x6>
  64:	000017b7          	lui	a5,0x1
  68:	0b87b703          	ld	a4,184(a5) # 10b8 <x5>
  6c:	000017b7          	lui	a5,0x1
  70:	0d078793          	addi	a5,a5,208 # 10d0 <mem>
  74:	00e7b023          	sd	a4,0(a5)
  78:	000017b7          	lui	a5,0x1
  7c:	0d078793          	addi	a5,a5,208 # 10d0 <mem>
  80:	0007b703          	ld	a4,0(a5)
  84:	80e1be23          	sd	a4,-2020(gp) # 10c8 <x7>
  88:	81c1b703          	ld	a4,-2020(gp) # 10c8 <x7>
  8c:	000017b7          	lui	a5,0x1
  90:	0b87b783          	ld	a5,184(a5) # 10b8 <x5>
  94:	00f71863          	bne	a4,a5,a4 <_start+0xa4>
  98:	00100713          	li	a4,1
  9c:	80e1be23          	sd	a4,-2020(gp) # 10c8 <x7>
  a0:	0080006f          	j	a8 <_start+0xa8>
  a4:	8001be23          	sd	zero,-2020(gp) # 10c8 <x7>
  a8:	0000006f          	j	a8 <_start+0xa8>
